; Function Attrs: mustprogress uwtable
define void @_ZN2cv25getDefaultNewCameraMatrixERKNS_11_InputArrayENS_5Size_IiEEb(ptr dead_on_unwind noalias writable sret(%"class.cv::Mat") align 8 %0, ptr noundef nonnull align 8 dereferenceable(24) %1, i64 %2, i1 noundef zeroext %3) local_unnamed_addr #3 personality ptr @__gxx_personality_v0 {
  %5 = alloca %"class.cv::Mat", align 8
  %6 = alloca %"class.cv::_OutputArray", align 8
  %.sroa.0.0.extract.trunc = trunc i64 %2 to i32
  %.sroa.2.0.extract.shift = lshr i64 %2, 32
  %.sroa.2.0.extract.trunc = trunc nuw i64 %.sroa.2.0.extract.shift to i32
  %7 = tail call noundef i32 @_ZNK2cv11_InputArray4kindEv(ptr noundef nonnull align 8 dereferenceable(24) %1), !noalias !4
  %8 = icmp eq i32 %7, 65536
  br i1 %8, label %9, label %12

9:                                                ; preds = %4
  %10 = getelementptr inbounds i8, ptr %1, i64 8
  %11 = load ptr, ptr %10, align 8, !noalias !4
  call void @_ZN2cv3MatC1ERKS0_(ptr noundef nonnull align 8 dereferenceable(96) %5, ptr noundef nonnull align 8 dereferenceable(96) %11)
  br label %_ZNK2cv11_InputArray6getMatEi.exit

12:                                               ; preds = %4
  call void @_ZNK2cv11_InputArray7getMat_Ei(ptr dead_on_unwind nonnull writable sret(%"class.cv::Mat") align 8 %5, ptr noundef nonnull align 8 dereferenceable(24) %1, i32 noundef -1)
  br label %_ZNK2cv11_InputArray6getMatEi.exit

_ZNK2cv11_InputArray6getMatEi.exit:               ; preds = %9, %12
  br i1 %3, label %18, label %13

13:                                               ; preds = %_ZNK2cv11_InputArray6getMatEi.exit
  %14 = load i32, ptr %5, align 8
  %15 = and i32 %14, 4095
  %16 = icmp eq i32 %15, 6
  br i1 %16, label %17, label %18

17:                                               ; preds = %13
  call void @_ZN2cv3MatC1EOS0_(ptr noundef nonnull align 8 dereferenceable(96) %0, ptr noundef nonnull align 8 dereferenceable(96) %5) #22
  br label %36

18:                                               ; preds = %_ZNK2cv11_InputArray6getMatEi.exit, %13
  call void @_ZN2cv3MatC1Ev(ptr noundef nonnull align 8 dereferenceable(96) %0) #22
  %19 = getelementptr inbounds i8, ptr %6, i64 8
  %20 = getelementptr inbounds i8, ptr %6, i64 16
  store i64 0, ptr %20, align 8
  store i32 33619968, ptr %6, align 8
  store ptr %0, ptr %19, align 8
  invoke void @_ZNK2cv3Mat9convertToERKNS_12_OutputArrayEidd(ptr noundef nonnull align 8 dereferenceable(96) %5, ptr noundef nonnull align 8 dereferenceable(24) %6, i32 noundef 6, double noundef 1.000000e+00, double noundef 0.000000e+00)
          to label %21 unwind label %34

21:                                               ; preds = %18
  br i1 %3, label %22, label %36

22:                                               ; preds = %21
  %23 = add nsw i32 %.sroa.0.0.extract.trunc, -1
  %24 = sitofp i32 %23 to double
  %25 = fmul double %24, 5.000000e-01
  %26 = getelementptr inbounds i8, ptr %0, i64 16
  %27 = load ptr, ptr %26, align 8
  %28 = getelementptr inbounds i8, ptr %27, i64 16
  store double %25, ptr %28, align 8
  %29 = add nsw i32 %.sroa.2.0.extract.trunc, -1
  %30 = sitofp i32 %29 to double
  %31 = fmul double %30, 5.000000e-01
  %32 = load ptr, ptr %26, align 8
  %33 = getelementptr inbounds i8, ptr %32, i64 40
  store double %31, ptr %33, align 8
  br label %36

34:                                               ; preds = %18
  %35 = landingpad { ptr, i32 }
          cleanup
  call void @_ZN2cv3MatD1Ev(ptr noundef nonnull align 8 dereferenceable(96) %0) #22
  call void @_ZN2cv3MatD1Ev(ptr noundef nonnull align 8 dereferenceable(96) %5) #22
  resume { ptr, i32 } %35

36:                                               ; preds = %21, %22, %17
  call void @_ZN2cv3MatD1Ev(ptr noundef nonnull align 8 dereferenceable(96) %5) #22
  ret void
}